; Function Attrs: mustprogress uwtable
define dso_local void @_ZN23btDefaultSoftBodySolver16updateSoftBodiesEv(ptr noundef nonnull readonly align 8 captures(none) dereferenceable(56) %0) unnamed_addr #4 align 2 {
  %2 = getelementptr inbounds nuw i8, ptr %0, i64 28
  %3 = load i32, ptr %2, align 4, !tbaa !21
  %4 = icmp sgt i32 %3, 0
  br i1 %4, label %.lr.ph, label %._crit_edge

.lr.ph:                                           ; preds = %1
  %5 = getelementptr inbounds nuw i8, ptr %0, i64 40
  br label %6

._crit_edge:                                      ; preds = %_ZNK17btCollisionObject8isActiveEv.exit, %1
  ret void

6:                                                ; preds = %.lr.ph, %_ZNK17btCollisionObject8isActiveEv.exit
  %7 = phi i32 [ %3, %.lr.ph ], [ %14, %_ZNK17btCollisionObject8isActiveEv.exit ]
  %indvars.iv = phi i64 [ 0, %.lr.ph ], [ %indvars.iv.next, %_ZNK17btCollisionObject8isActiveEv.exit ]
  %8 = load ptr, ptr %5, align 8, !tbaa !20
  %9 = getelementptr inbounds nuw ptr, ptr %8, i64 %indvars.iv
  %10 = load ptr, ptr %9, align 8, !tbaa !27
  %11 = getelementptr inbounds nuw i8, ptr %10, i64 240
  %12 = load i32, ptr %11, align 8, !tbaa !31
  switch i32 %12, label %13 [
    i32 6, label %_ZNK17btCollisionObject8isActiveEv.exit
    i32 2, label %_ZNK17btCollisionObject8isActiveEv.exit
    i32 5, label %_ZNK17btCollisionObject8isActiveEv.exit
  ]

13:                                               ; preds = %6
  tail call void @_ZN10btSoftBody15integrateMotionEv(ptr noundef nonnull align 8 dereferenceable(2064) %10)
  %.pre = load i32, ptr %2, align 4, !tbaa !21
  br label %_ZNK17btCollisionObject8isActiveEv.exit

_ZNK17btCollisionObject8isActiveEv.exit:          ; preds = %6, %6, %6, %13
  %14 = phi i32 [ %7, %6 ], [ %7, %6 ], [ %7, %6 ], [ %.pre, %13 ]
  %indvars.iv.next = add nuw nsw i64 %indvars.iv, 1
  %15 = sext i32 %14 to i64
  %16 = icmp slt i64 %indvars.iv.next, %15
  br i1 %16, label %6, label %._crit_edge, !llvm.loop !41
}